(dp1
S'angry'
p2
(lp3
Vhttps://www.youtube.com/watch?v=WnLJ1iYOZHM
p4
aVhttps://www.youtube.com/watch?v=QBsA2ETp7JA
p5
aVhttps://www.youtube.com/watch?v=g0XpNvLWimo
p6
aVhttps://www.youtube.com/watch?v=WY0NEQd3_co
p7
aVhttps://www.youtube.com/watch?v=XQOnG-WaCeA
p8
aVhttps://www.youtube.com/watch?v=KuHEzRIv9i8
p9
aVhttps://www.youtube.com/watch?v=QLn3B-mHNOs
p10
aVhttps://www.youtube.com/watch?v=pX-bIr8dr6U
p11
aVhttps://www.youtube.com/watch?v=QN5zrpo-2e0
p12
aVhttps://www.youtube.com/watch?v=97sYm0Bkd3Y
p13
aVhttps://www.youtube.com/watch?v=NPcyTyilmYY
p14
aVhttps://www.youtube.com/watch?v=HuO3wwLuF0w
p15
aVhttps://www.youtube.com/watch?v=iNo7m6chEW0
p16
aVhttps://www.youtube.com/watch?v=Qi7KDOAj4Xo
p17
aVhttps://www.youtube.com/watch?v=97sYm0Bkd3Y
p18
aVhttps://www.youtube.com/watch?v=CfTNpbraBbI
p19
aVhttps://www.youtube.com/watch?v=mQvteoFiMlg
p20
aVhttps://www.youtube.com/watch?v=cDF7EV2Oo9s
p21
aVhttps://www.youtube.com/watch?v=9XmDhiAnH2I
p22
aVhttps://www.youtube.com/watch?v=JEIceHIxvtI
p23
aVhttps://www.youtube.com/watch?v=7Yae8V6QODg
p24
aVhttps://www.youtube.com/watch?v=3GKxIsCkOSQ
p25
aVhttps://www.youtube.com/watch?v=z7fpmj_2uLU
p26
aVhttps://www.youtube.com/watch?v=GiGrRTTPZAE
p27
aVhttps://www.youtube.com/watch?v=C6PNc9KN50M
p28
aVhttps://www.youtube.com/watch?v=cdsvuHxiLt8
p29
aVhttps://www.youtube.com/watch?v=jodXJnf_o9k
p30
aVhttps://www.youtube.com/watch?v=Nl2PnW21kxE
p31
aVhttps://www.youtube.com/watch?v=gmtbsFW0tCw
p32
aVhttps://www.youtube.com/watch?v=mYRryk3OI6E
p33
aVhttps://www.youtube.com/watch?v=WZviju9HQSE
p34
aVhttps://www.youtube.com/watch?v=nS8Qi2x8KTU
p35
aVhttps://www.youtube.com/watch?v=m5Z2sEXWn5I
p36
aVhttps://www.youtube.com/watch?v=A2lna_n4aWg
p37
aVhttps://www.youtube.com/watch?v=lTb4s3agIoQ
p38
aVhttps://www.youtube.com/watch?v=71xeMTazmMo
p39
aVhttps://www.youtube.com/watch?v=bULBnef6w6k
p40
aVhttps://www.youtube.com/watch?v=_rW6CxIQv74
p41
aVhttps://www.youtube.com/watch?v=omWQzYycyJk
p42
aVhttps://www.youtube.com/watch?v=ZxcCN6BgO_k
p43
aVhttps://www.youtube.com/watch?v=14mLZiV5Pi8
p44
aVhttps://www.youtube.com/watch?v=3syd8kF2fVI
p45
aVhttps://www.youtube.com/watch?v=oUq7yBtdr2I
p46
aVhttps://www.youtube.com/watch?v=_n5k_j_A3ac
p47
aVhttps://www.youtube.com/watch?v=f3SWQuD-wSk
p48
aVhttps://www.youtube.com/watch?v=dqUomIepGPw
p49
aVhttps://www.youtube.com/watch?v=wCi3F4gphC0
p50
aVhttps://www.youtube.com/watch?v=VZlHYZvC2jw
p51
aVhttps://www.youtube.com/watch?v=jCLizTg9nWo
p52
aVhttps://www.youtube.com/watch?v=B0sy7y54XAE
p53
asS'sad'
p54
(lp55
Vhttps://www.youtube.com/watch?v=Wg92RrNhB8s
p56
aVhttps://www.youtube.com/watch?v=ij_0p_6qTss
p57
aVhttps://www.youtube.com/watch?v=QyOok1myLjw
p58
aVhttps://www.youtube.com/watch?v=vy0NySCmuFU
p59
aVhttps://www.youtube.com/watch?v=4N3N1MlvVc4
p60
aVhttps://www.youtube.com/watch?v=FEi7NuREYvo
p61
aVhttps://www.youtube.com/watch?v=DCB_MbYyCYQ
p62
aVhttps://www.youtube.com/watch?v=y0s7ycdUcHk
p63
aVhttps://www.youtube.com/watch?v=pEMIvuSRmvE
p64
aVhttps://www.youtube.com/watch?v=vt1Pwfnh5pc
p65
aVhttps://www.youtube.com/watch?v=UnfM-7py58E
p66
aVhttps://www.youtube.com/watch?v=c7HhN5u2GPw
p67
aVhttps://www.youtube.com/watch?v=SFGvmrJ5rjM
p68
aVhttps://www.youtube.com/watch?v=gFM1aHHUXJo
p69
aVhttps://www.youtube.com/watch?v=T_AR9lgDnDY
p70
aVhttps://www.youtube.com/watch?v=vC1X42qFfGk
p71
aVhttps://www.youtube.com/watch?v=8RwsS1Jp888
p72
aVhttps://www.youtube.com/watch?v=D7IMmsRGRpA
p73
aVhttps://www.youtube.com/watch?v=UAWcs5H-qgQ
p74
aVhttps://www.youtube.com/watch?v=Ef1nJWtkprU
p75
aVhttps://www.youtube.com/watch?v=PCb803x3AM0
p76
aVhttps://www.youtube.com/watch?v=HO0svGjVEP8
p77
aVhttps://www.youtube.com/watch?v=5SrEdAeGj6Y
p78
aVhttps://www.youtube.com/watch?v=8v_4O44sfjM
p79
aVhttps://www.youtube.com/watch?v=XSEcrcxUs7M
p80
aVhttps://www.youtube.com/watch?v=KakmItBhBkM
p81
aVhttps://www.youtube.com/watch?v=S7zHZrcHdxg
p82
aVhttps://www.youtube.com/watch?v=cqJoVlnmdFQ
p83
aVhttps://www.youtube.com/watch?v=xXZF9W6uCTo
p84
aVhttps://www.youtube.com/watch?v=2ntKgLxgY9s
p85
aVhttps://www.youtube.com/watch?v=byVA-YfNxds
p86
aVhttps://www.youtube.com/watch?v=lJJT00wqlOo
p87
aVhttps://www.youtube.com/watch?v=o1yON3BibVc
p88
aVhttps://www.youtube.com/watch?v=u4YDxO_IHdg
p89
aVhttps://www.youtube.com/watch?v=owGzyBV8dEQ
p90
aVhttps://www.youtube.com/watch?v=9Uy4odKfFiM
p91
aVhttps://www.youtube.com/watch?v=xR0DKOGco_o
p92
aVhttps://www.youtube.com/watch?v=yKeeM6zBeRs
p93
aVhttps://www.youtube.com/watch?v=oGfyU4Qx5vc
p94
aVhttps://www.youtube.com/watch?v=FVkVAnMny8k
p95
aVhttps://www.youtube.com/watch?v=5qkfAc_6dv0
p96
aVhttps://www.youtube.com/watch?v=JNm2_Wth1sE
p97
aVhttps://www.youtube.com/watch?v=quAFmNvk_Zs
p98
aVhttps://www.youtube.com/watch?v=DKC6GbbVloE
p99
aVhttps://www.youtube.com/watch?v=Hngz8O2dAHI
p100
aVhttps://www.youtube.com/watch?v=85GXmUzq6Gg
p101
aVhttps://www.youtube.com/watch?v=CAjKZJarlwk
p102
aVhttps://www.youtube.com/watch?v=SeINf5tvMXo
p103
aVhttps://www.youtube.com/watch?v=rn-wrPf5Ls0
p104
aVhttps://www.youtube.com/watch?v=Pu7e5Qlrjcc
p105
asS'happy'
p106
(lp107
Vhttps://www.youtube.com/watch?v=y6Sxv-sUYtM
p108
aVhttps://www.youtube.com/watch?v=IGMabBGydC0
p109
aVhttps://www.youtube.com/watch?v=EkHTsc9PU2A
p110
aVhttps://www.youtube.com/watch?v=T8YCSJpF4g4
p111
aVhttps://www.youtube.com/watch?v=d-diB65scQU
p112
aVhttps://www.youtube.com/watch?v=JwlgC-jSPTk
p113
aVhttps://www.youtube.com/watch?v=0yBnIUX0QAE
p114
aVhttps://www.youtube.com/watch?v=51Bpx63wkbA
p115
aVhttps://www.youtube.com/watch?v=ehu3wy4WkHs
p116
aVhttps://www.youtube.com/watch?v=dwGO-wwKSjg
p117
aVhttps://www.youtube.com/watch?v=kVpv8-5XWOI
p118
aVhttps://www.youtube.com/watch?v=6OmbjjWVhko
p119
aVhttps://www.youtube.com/watch?v=QvD6maGRh7c
p120
aVhttps://www.youtube.com/watch?v=WgBeu3FVi60
p121
aVhttps://www.youtube.com/watch?v=jTtddTpl4m8
p122
aVhttps://www.youtube.com/watch?v=BWXWivwhi14
p123
aVhttps://www.youtube.com/watch?v=mCHzicKq3W4
p124
aVhttps://www.youtube.com/watch?v=KRvbF4BzgqA
p125
aVhttps://www.youtube.com/watch?v=cbixLt0WBQs
p126
aVhttps://www.youtube.com/watch?v=6md5RSnVUuo
p127
aVhttps://www.youtube.com/watch?v=3Wi1d0FNgdQ
p128
aVhttps://www.youtube.com/watch?v=AWiccrTB4LM
p129
aVhttps://www.youtube.com/watch?v=M3fkZeWsyvo
p130
aVhttps://www.youtube.com/watch?v=iPUmE-tne5U
p131
aVhttps://www.youtube.com/watch?v=bjPqsDU0j2I
p132
aVhttps://www.youtube.com/watch?v=iZ9vkd7Rp-g
p133
aVhttps://www.youtube.com/watch?v=SzjJvMkEyZ8
p134
aVhttps://www.youtube.com/watch?v=SDTZ7iX4vTQ
p135
aVhttps://www.youtube.com/watch?v=zftcZYdOl3Y
p136
aVhttps://www.youtube.com/watch?v=5gIFm5earUY
p137
aVhttps://www.youtube.com/watch?v=didptMJxjpE
p138
aVhttps://www.youtube.com/watch?v=0CGVgAYJyjk
p139
aVhttps://www.youtube.com/watch?v=cLyUcAUMmMY
p140
aVhttps://www.youtube.com/watch?v=elsh3J5lJ6g
p141
aVhttps://www.youtube.com/watch?v=KuD8PgPbKaY
p142
aVhttps://www.youtube.com/watch?v=H7HmzwI67ec
p143
aVhttps://www.youtube.com/watch?v=SFI9s6INJPQ
p144
aVhttps://www.youtube.com/watch?v=yDSK91mUNLU
p145
aVhttps://www.youtube.com/watch?v=2QsLEBzQIos
p146
aVhttps://www.youtube.com/watch?v=136bOXZyldU
p147
aVhttps://www.youtube.com/watch?v=QUypt2nvorM
p148
aVhttps://www.youtube.com/watch?v=Qq1dR46_7mg
p149
aVhttps://www.youtube.com/watch?v=eV_LTi4Haf4
p150
aVhttps://www.youtube.com/watch?v=STCIGllIrko
p151
aVhttps://www.youtube.com/watch?v=Nemst-oB3Po
p152
aVhttps://www.youtube.com/watch?v=bJkymylTNU4
p153
aVhttps://www.youtube.com/watch?v=0ud-pdJh8S8
p154
aVhttps://www.youtube.com/watch?v=HLA0ofsu0Qg
p155
aVhttps://www.youtube.com/watch?v=MrHxhQPOO2c
p156
aVhttps://www.youtube.com/watch?v=UM0qzSAxrCM
p157
as.